target datalayout = "e-m:e-p270:32:32-p271:32:32-p272:64:64-i64:64-i128:128-f80:128-n8:16:32:64-S128"
target triple = "x86_64-pc-linux-gnu"

%struct.JNINativeInterface_ = type { ptr, ptr, ptr, ptr, ptr, ptr, ptr, ptr, ptr, ptr, ptr, ptr, ptr, ptr, ptr, ptr, ptr, ptr, ptr, ptr, ptr, ptr, ptr, ptr, ptr, ptr, ptr, ptr, ptr, ptr, ptr, ptr, ptr, ptr, ptr, ptr, ptr, ptr, ptr, ptr, ptr, ptr, ptr, ptr, ptr, ptr, ptr, ptr, ptr, ptr, ptr, ptr, ptr, ptr, ptr, ptr, ptr, ptr, ptr, ptr, ptr, ptr, ptr, ptr, ptr, ptr, ptr, ptr, ptr, ptr, ptr, ptr, ptr, ptr, ptr, ptr, ptr, ptr, ptr, ptr, ptr, ptr, ptr, ptr, ptr, ptr, ptr, ptr, ptr, ptr, ptr, ptr, ptr, ptr, ptr, ptr, ptr, ptr, ptr, ptr, ptr, ptr, ptr, ptr, ptr, ptr, ptr, ptr, ptr, ptr, ptr, ptr, ptr, ptr, ptr, ptr, ptr, ptr, ptr, ptr, ptr, ptr, ptr, ptr, ptr, ptr, ptr, ptr, ptr, ptr, ptr, ptr, ptr, ptr, ptr, ptr, ptr, ptr, ptr, ptr, ptr, ptr, ptr, ptr, ptr, ptr, ptr, ptr, ptr, ptr, ptr, ptr, ptr, ptr, ptr, ptr, ptr, ptr, ptr, ptr, ptr, ptr, ptr, ptr, ptr, ptr, ptr, ptr, ptr, ptr, ptr, ptr, ptr, ptr, ptr, ptr, ptr, ptr, ptr, ptr, ptr, ptr, ptr, ptr, ptr, ptr, ptr, ptr, ptr, ptr, ptr, ptr, ptr, ptr, ptr, ptr, ptr, ptr, ptr, ptr, ptr, ptr, ptr, ptr, ptr, ptr, ptr, ptr, ptr, ptr, ptr, ptr, ptr, ptr, ptr, ptr, ptr, ptr, ptr, ptr, ptr, ptr, ptr, ptr, ptr, ptr, ptr, ptr, ptr, ptr, ptr, ptr, ptr, ptr, ptr }
%struct.Splash = type { %struct.ImageFormat, [3 x %struct.DitherSettings], %struct.ImageFormat, [256 x i32], i32, i32, i32, i32, i32, ptr, i32, ptr, %struct.ImageRect, %struct.ImageFormat, ptr, i32, i32, i32, i32, i32, [256 x i32], i32, ptr, i32, ptr, i32, float, [2 x i32], ptr, i64, ptr, ptr, i64, %union.pthread_mutex_t, i64, ptr }
%struct.DitherSettings = type { i32, [512 x i32], [16 x [16 x i32]] }
%struct.ImageRect = type { i32, i32, i32, i32, ptr, ptr, i32, i32, i32 }
%struct.ImageFormat = type { [4 x i32], [4 x i32], i32, i32, i32, ptr, i32, i32, ptr, i32, ptr }
%union.pthread_mutex_t = type { %struct.__pthread_mutex_s }
%struct.__pthread_mutex_s = type { i32, i32, i32, i32, i32, i16, i16, %struct.__pthread_internal_list }
%struct.__pthread_internal_list = type { ptr, ptr }

; Function Attrs: nounwind uwtable
define void @Java_java_awt_SplashScreen__1update(ptr noundef %0, ptr noundef %1, i64 noundef %2, ptr noundef %3, i32 noundef %4, i32 noundef %5, i32 noundef %6, i32 noundef %7, i32 noundef %8) #0 {
  %10 = alloca ptr, align 8
  %11 = alloca ptr, align 8
  %12 = alloca i64, align 8
  %13 = alloca ptr, align 8
  %14 = alloca i32, align 4
  %15 = alloca i32, align 4
  %16 = alloca i32, align 4
  %17 = alloca i32, align 4
  %18 = alloca i32, align 4
  %19 = alloca ptr, align 8
  %20 = alloca i32, align 4
  store ptr %0, ptr %10, align 8
  store ptr %1, ptr %11, align 8
  store i64 %2, ptr %12, align 8
  store ptr %3, ptr %13, align 8
  store i32 %4, ptr %14, align 4
  store i32 %5, ptr %15, align 4
  store i32 %6, ptr %16, align 4
  store i32 %7, ptr %17, align 4
  store i32 %8, ptr %18, align 4
  %21 = load i64, ptr %12, align 8
  %22 = inttoptr i64 %21 to ptr
  store ptr %22, ptr %19, align 8
  %23 = load ptr, ptr %19, align 8
  %24 = icmp ne ptr %23, null
  br i1 %24, label %26, label %25

25:                                               ; preds = %9
  br label %103

26:                                               ; preds = %9
  %27 = load ptr, ptr %19, align 8
  call void @SplashLock(ptr noundef %27)
  %28 = load ptr, ptr %10, align 8
  %29 = load ptr, ptr %28, align 8
  %30 = getelementptr inbounds %struct.JNINativeInterface_, ptr %29, i32 0, i32 171
  %31 = load ptr, ptr %30, align 8
  %32 = load ptr, ptr %10, align 8
  %33 = load ptr, ptr %13, align 8
  %34 = call i32 %31(ptr noundef %32, ptr noundef %33)
  store i32 %34, ptr %20, align 4
  %35 = load ptr, ptr %19, align 8
  %36 = getelementptr inbounds %struct.Splash, ptr %35, i32 0, i32 11
  %37 = load ptr, ptr %36, align 8
  %38 = icmp ne ptr %37, null
  br i1 %38, label %39, label %43

39:                                               ; preds = %26
  %40 = load ptr, ptr %19, align 8
  %41 = getelementptr inbounds %struct.Splash, ptr %40, i32 0, i32 11
  %42 = load ptr, ptr %41, align 8
  call void @free(ptr noundef %42) #4
  br label %43

43:                                               ; preds = %39, %26
  %44 = load i32, ptr %20, align 4
  %45 = icmp sge i32 %44, 0
  br i1 %45, label %46, label %63

46:                                               ; preds = %43
  %47 = load i32, ptr %20, align 4
  %48 = sext i32 %47 to i64
  %49 = icmp ule i64 %48, -1
  br i1 %49, label %50, label %63

50:                                               ; preds = %46
  %51 = load i32, ptr %20, align 4
  %52 = icmp eq i32 %51, 0
  br i1 %52, label %58, label %53

53:                                               ; preds = %50
  %54 = load i32, ptr %20, align 4
  %55 = sext i32 %54 to i64
  %56 = udiv i64 -1, %55
  %57 = icmp ule i64 4, %56
  br i1 %57, label %58, label %63

58:                                               ; preds = %53, %50
  %59 = load i32, ptr %20, align 4
  %60 = sext i32 %59 to i64
  %61 = mul i64 %60, 4
  %62 = call noalias ptr @malloc(i64 noundef %61) #5
  br label %64

63:                                               ; preds = %53, %46, %43
  br label %64

64:                                               ; preds = %63, %58
  %65 = phi ptr [ %62, %58 ], [ null, %63 ]
  %66 = load ptr, ptr %19, align 8
  %67 = getelementptr inbounds %struct.Splash, ptr %66, i32 0, i32 11
  store ptr %65, ptr %67, align 8
  %68 = load ptr, ptr %19, align 8
  %69 = getelementptr inbounds %struct.Splash, ptr %68, i32 0, i32 11
  %70 = load ptr, ptr %69, align 8
  %71 = icmp ne ptr %70, null
  br i1 %71, label %72, label %101

72:                                               ; preds = %64
  %73 = load ptr, ptr %10, align 8
  %74 = load ptr, ptr %73, align 8
  %75 = getelementptr inbounds %struct.JNINativeInterface_, ptr %74, i32 0, i32 203
  %76 = load ptr, ptr %75, align 8
  %77 = load ptr, ptr %10, align 8
  %78 = load ptr, ptr %13, align 8
  %79 = load i32, ptr %20, align 4
  %80 = load ptr, ptr %19, align 8
  %81 = getelementptr inbounds %struct.Splash, ptr %80, i32 0, i32 11
  %82 = load ptr, ptr %81, align 8
  call void %76(ptr noundef %77, ptr noundef %78, i32 noundef 0, i32 noundef %79, ptr noundef %82)
  %83 = load ptr, ptr %19, align 8
  %84 = getelementptr inbounds %struct.Splash, ptr %83, i32 0, i32 13
  call void @initFormat(ptr noundef %84, i32 noundef 16711680, i32 noundef 65280, i32 noundef 255, i32 noundef -16777216)
  %85 = load ptr, ptr %19, align 8
  %86 = getelementptr inbounds %struct.Splash, ptr %85, i32 0, i32 12
  %87 = load i32, ptr %14, align 4
  %88 = load i32, ptr %15, align 4
  %89 = load i32, ptr %16, align 4
  %90 = load i32, ptr %17, align 4
  %91 = load i32, ptr %18, align 4
  %92 = sext i32 %91 to i64
  %93 = mul i64 %92, 4
  %94 = trunc i64 %93 to i32
  %95 = load ptr, ptr %19, align 8
  %96 = getelementptr inbounds %struct.Splash, ptr %95, i32 0, i32 11
  %97 = load ptr, ptr %96, align 8
  %98 = load ptr, ptr %19, align 8
  %99 = getelementptr inbounds %struct.Splash, ptr %98, i32 0, i32 13
  call void @initRect(ptr noundef %86, i32 noundef %87, i32 noundef %88, i32 noundef %89, i32 noundef %90, i32 noundef 1, i32 noundef %94, ptr noundef %97, ptr noundef %99)
  %100 = load ptr, ptr %19, align 8
  call void @SplashUpdate(ptr noundef %100)
  br label %101

101:                                              ; preds = %72, %64
  %102 = load ptr, ptr %19, align 8
  call void @SplashUnlock(ptr noundef %102)
  br label %103

103:                                              ; preds = %101, %25
  ret void
}