; Function Attrs: nounwind uwtable
define void @Java_java_awt_SplashScreen__1update(ptr noundef %0, ptr nocapture noundef readnone %1, i64 noundef %2, ptr noundef %3, i32 noundef %4, i32 noundef %5, i32 noundef %6, i32 noundef %7, i32 noundef %8) local_unnamed_addr #1 {
  %10 = inttoptr i64 %2 to ptr
  %.not = icmp eq i64 %2, 0
  br i1 %.not, label %34, label %11

11:                                               ; preds = %9
  tail call void @SplashLock(ptr noundef nonnull %10) #6
  %12 = load ptr, ptr %0, align 8
  %13 = getelementptr inbounds i8, ptr %12, i64 1368
  %14 = load ptr, ptr %13, align 8
  %15 = tail call i32 %14(ptr noundef nonnull %0, ptr noundef %3) #6
  %16 = getelementptr inbounds i8, ptr %10, i64 10472
  %17 = load ptr, ptr %16, align 8
  %.not35 = icmp eq ptr %17, null
  br i1 %.not35, label %19, label %18

18:                                               ; preds = %11
  tail call void @free(ptr noundef nonnull %17) #6
  br label %19

19:                                               ; preds = %18, %11
  %20 = icmp sgt i32 %15, -1
  br i1 %20, label %21, label %.thread

.thread:                                          ; preds = %19
  store ptr null, ptr %16, align 8
  br label %33

21:                                               ; preds = %19
  %22 = zext nneg i32 %15 to i64
  %23 = shl nuw nsw i64 %22, 2
  %24 = tail call noalias ptr @malloc(i64 noundef %23) #7
  store ptr %24, ptr %16, align 8
  %.not36 = icmp eq ptr %24, null
  br i1 %.not36, label %33, label %25

25:                                               ; preds = %21
  %26 = load ptr, ptr %0, align 8
  %27 = getelementptr inbounds i8, ptr %26, i64 1624
  %28 = load ptr, ptr %27, align 8
  tail call void %28(ptr noundef nonnull %0, ptr noundef %3, i32 noundef 0, i32 noundef %15, ptr noundef nonnull %24) #6
  %29 = getelementptr inbounds i8, ptr %10, i64 10528
  tail call void @initFormat(ptr noundef nonnull %29, i32 noundef 16711680, i32 noundef 65280, i32 noundef 255, i32 noundef -16777216) #6
  %30 = getelementptr inbounds i8, ptr %10, i64 10480
  %31 = shl i32 %8, 2
  %32 = load ptr, ptr %16, align 8
  tail call void @initRect(ptr noundef nonnull %30, i32 noundef %4, i32 noundef %5, i32 noundef %6, i32 noundef %7, i32 noundef 1, i32 noundef %31, ptr noundef %32, ptr noundef nonnull %29) #6
  tail call void @SplashUpdate(ptr noundef nonnull %10) #6
  br label %33

33:                                               ; preds = %.thread, %25, %21
  tail call void @SplashUnlock(ptr noundef nonnull %10) #6
  br label %34

34:                                               ; preds = %9, %33
  ret void
}